target datalayout = "e-m:e-p270:32:32-p271:32:32-p272:64:64-i64:64-i128:128-f80:128-n8:16:32:64-S128"
target triple = "x86_64-pc-linux-gnu"

%struct.WaveFile = type { %struct.WaveChunk, %struct.WaveFormat, %struct.WaveFact, i64, ptr, i32, i32, i32 }
%struct.WaveChunk = type { i32, i32, i64, ptr, i64 }
%struct.WaveFormat = type { i16, i16, i16, i32, i32, i16, i16, i16, i16, i32, i32, [16 x i8] }
%struct.WaveFact = type { i32, i32 }

@.str.55 = private unnamed_addr constant [62 x i8] c"Invalid number of sample frames in WAVE fact chunk (too many)\00", align 1
@.str.72 = private unnamed_addr constant [18 x i8] c"WAVE file too big\00", align 1
@.str.73 = private unnamed_addr constant [27 x i8] c"Unknown companded encoding\00", align 1

; Function Attrs: nounwind uwtable
define internal i32 @SafeMult(ptr noundef %0, i64 noundef %1) #0 {
  %3 = alloca i32, align 4
  %4 = alloca ptr, align 8
  %5 = alloca i64, align 8
  store ptr %0, ptr %4, align 8
  store i64 %1, ptr %5, align 8
  %6 = load ptr, ptr %4, align 8
  %7 = load i64, ptr %6, align 8
  %8 = icmp ugt i64 %7, 0
  br i1 %8, label %9, label %16

9:                                                ; preds = %2
  %10 = load ptr, ptr %4, align 8
  %11 = load i64, ptr %10, align 8
  %12 = udiv i64 -1, %11
  %13 = load i64, ptr %5, align 8
  %14 = icmp ule i64 %12, %13
  br i1 %14, label %15, label %16

15:                                               ; preds = %9
  store i32 -1, ptr %3, align 4
  br label %21

16:                                               ; preds = %9, %2
  %17 = load i64, ptr %5, align 8
  %18 = load ptr, ptr %4, align 8
  %19 = load i64, ptr %18, align 8
  %20 = mul i64 %19, %17
  store i64 %20, ptr %18, align 8
  store i32 0, ptr %3, align 4
  br label %21

21:                                               ; preds = %16, %15
  %22 = load i32, ptr %3, align 4
  ret i32 %22
}

; Function Attrs: nounwind uwtable
define internal i64 @WaveAdjustToFactValue(ptr noundef %0, i64 noundef %1) #0 {
  %3 = alloca i64, align 8
  %4 = alloca ptr, align 8
  %5 = alloca i64, align 8
  store ptr %0, ptr %4, align 8
  store i64 %1, ptr %5, align 8
  %6 = load ptr, ptr %4, align 8
  %7 = getelementptr inbounds nuw %struct.WaveFile, ptr %6, i32 0, i32 2
  %8 = getelementptr inbounds nuw %struct.WaveFact, ptr %7, i32 0, i32 0
  %9 = load i32, ptr %8, align 8
  %10 = icmp eq i32 %9, 2
  br i1 %10, label %11, label %42

11:                                               ; preds = %2
  %12 = load ptr, ptr %4, align 8
  %13 = getelementptr inbounds nuw %struct.WaveFile, ptr %12, i32 0, i32 7
  %14 = load i32, ptr %13, align 8
  %15 = icmp eq i32 %14, 2
  br i1 %15, label %16, label %26

16:                                               ; preds = %11
  %17 = load i64, ptr %5, align 8
  %18 = load ptr, ptr %4, align 8
  %19 = getelementptr inbounds nuw %struct.WaveFile, ptr %18, i32 0, i32 2
  %20 = getelementptr inbounds nuw %struct.WaveFact, ptr %19, i32 0, i32 1
  %21 = load i32, ptr %20, align 4
  %22 = zext i32 %21 to i64
  %23 = icmp slt i64 %17, %22
  br i1 %23, label %24, label %26

24:                                               ; preds = %16
  %25 = call zeroext i1 (ptr, ...) @SDL_SetError_REAL(ptr noundef @.str.55)
  store i64 -1, ptr %3, align 8
  br label %44

26:                                               ; preds = %16, %11
  %27 = load i64, ptr %5, align 8
  %28 = load ptr, ptr %4, align 8
  %29 = getelementptr inbounds nuw %struct.WaveFile, ptr %28, i32 0, i32 2
  %30 = getelementptr inbounds nuw %struct.WaveFact, ptr %29, i32 0, i32 1
  %31 = load i32, ptr %30, align 4
  %32 = zext i32 %31 to i64
  %33 = icmp sgt i64 %27, %32
  br i1 %33, label %34, label %40

34:                                               ; preds = %26
  %35 = load ptr, ptr %4, align 8
  %36 = getelementptr inbounds nuw %struct.WaveFile, ptr %35, i32 0, i32 2
  %37 = getelementptr inbounds nuw %struct.WaveFact, ptr %36, i32 0, i32 1
  %38 = load i32, ptr %37, align 4
  %39 = zext i32 %38 to i64
  store i64 %39, ptr %3, align 8
  br label %44

40:                                               ; preds = %26
  br label %41

41:                                               ; preds = %40
  br label %42

42:                                               ; preds = %41, %2
  %43 = load i64, ptr %5, align 8
  store i64 %43, ptr %3, align 8
  br label %44

44:                                               ; preds = %42, %34, %24
  %45 = load i64, ptr %3, align 8
  ret i64 %45
}

; Function Attrs: nounwind uwtable
define internal zeroext i1 @LAW_Decode(ptr noundef %0, ptr noundef %1, ptr noundef %2) #0 {
  %4 = alloca i1, align 1
  %5 = alloca ptr, align 8
  %6 = alloca ptr, align 8
  %7 = alloca ptr, align 8
  %8 = alloca ptr, align 8
  %9 = alloca ptr, align 8
  %10 = alloca i64, align 8
  %11 = alloca i64, align 8
  %12 = alloca i64, align 8
  %13 = alloca ptr, align 8
  %14 = alloca ptr, align 8
  %15 = alloca i32, align 4
  %16 = alloca i8, align 1
  %17 = alloca i8, align 1
  %18 = alloca i16, align 2
  %19 = alloca i8, align 1
  %20 = alloca i16, align 2
  %21 = alloca i8, align 1
  %22 = alloca i16, align 2
  store ptr %0, ptr %5, align 8
  store ptr %1, ptr %6, align 8
  store ptr %2, ptr %7, align 8
  call void @llvm.lifetime.start.p0(i64 8, ptr %8) #7
  %23 = load ptr, ptr %5, align 8
  %24 = getelementptr inbounds nuw %struct.WaveFile, ptr %23, i32 0, i32 1
  store ptr %24, ptr %8, align 8
  call void @llvm.lifetime.start.p0(i64 8, ptr %9) #7
  %25 = load ptr, ptr %5, align 8
  %26 = getelementptr inbounds nuw %struct.WaveFile, ptr %25, i32 0, i32 0
  store ptr %26, ptr %9, align 8
  call void @llvm.lifetime.start.p0(i64 8, ptr %10) #7
  call void @llvm.lifetime.start.p0(i64 8, ptr %11) #7
  call void @llvm.lifetime.start.p0(i64 8, ptr %12) #7
  call void @llvm.lifetime.start.p0(i64 8, ptr %13) #7
  call void @llvm.lifetime.start.p0(i64 8, ptr %14) #7
  %27 = load ptr, ptr %9, align 8
  %28 = getelementptr inbounds nuw %struct.WaveChunk, ptr %27, i32 0, i32 1
  %29 = load i32, ptr %28, align 4
  %30 = zext i32 %29 to i64
  %31 = load ptr, ptr %9, align 8
  %32 = getelementptr inbounds nuw %struct.WaveChunk, ptr %31, i32 0, i32 4
  %33 = load i64, ptr %32, align 8
  %34 = icmp ne i64 %30, %33
  br i1 %34, label %35, label %54

35:                                               ; preds = %3
  %36 = load ptr, ptr %5, align 8
  %37 = load ptr, ptr %9, align 8
  %38 = getelementptr inbounds nuw %struct.WaveChunk, ptr %37, i32 0, i32 4
  %39 = load i64, ptr %38, align 8
  %40 = load ptr, ptr %8, align 8
  %41 = getelementptr inbounds nuw %struct.WaveFormat, ptr %40, i32 0, i32 5
  %42 = load i16, ptr %41, align 4
  %43 = zext i16 %42 to i64
  %44 = udiv i64 %39, %43
  %45 = call i64 @WaveAdjustToFactValue(ptr noundef %36, i64 noundef %44)
  %46 = load ptr, ptr %5, align 8
  %47 = getelementptr inbounds nuw %struct.WaveFile, ptr %46, i32 0, i32 3
  store i64 %45, ptr %47, align 8
  %48 = load ptr, ptr %5, align 8
  %49 = getelementptr inbounds nuw %struct.WaveFile, ptr %48, i32 0, i32 3
  %50 = load i64, ptr %49, align 8
  %51 = icmp slt i64 %50, 0
  br i1 %51, label %52, label %53

52:                                               ; preds = %35
  store i1 false, ptr %4, align 1
  store i32 1, ptr %15, align 4
  br label %254

53:                                               ; preds = %35
  br label %54

54:                                               ; preds = %53, %3
  %55 = load ptr, ptr %5, align 8
  %56 = getelementptr inbounds nuw %struct.WaveFile, ptr %55, i32 0, i32 3
  %57 = load i64, ptr %56, align 8
  %58 = icmp eq i64 %57, 0
  br i1 %58, label %59, label %62

59:                                               ; preds = %54
  %60 = load ptr, ptr %6, align 8
  store ptr null, ptr %60, align 8
  %61 = load ptr, ptr %7, align 8
  store i32 0, ptr %61, align 4
  store i1 true, ptr %4, align 1
  store i32 1, ptr %15, align 4
  br label %254

62:                                               ; preds = %54
  %63 = load ptr, ptr %5, align 8
  %64 = getelementptr inbounds nuw %struct.WaveFile, ptr %63, i32 0, i32 3
  %65 = load i64, ptr %64, align 8
  store i64 %65, ptr %11, align 8
  %66 = load ptr, ptr %8, align 8
  %67 = getelementptr inbounds nuw %struct.WaveFormat, ptr %66, i32 0, i32 2
  %68 = load i16, ptr %67, align 4
  %69 = zext i16 %68 to i64
  %70 = call i32 @SafeMult(ptr noundef %11, i64 noundef %69)
  %71 = icmp ne i32 %70, 0
  br i1 %71, label %72, label %74

72:                                               ; preds = %62
  %73 = call zeroext i1 (ptr, ...) @SDL_SetError_REAL(ptr noundef @.str.72)
  store i1 %73, ptr %4, align 1
  store i32 1, ptr %15, align 4
  br label %254

74:                                               ; preds = %62
  %75 = load i64, ptr %11, align 8
  store i64 %75, ptr %12, align 8
  %76 = call i32 @SafeMult(ptr noundef %12, i64 noundef 2)
  %77 = icmp ne i32 %76, 0
  br i1 %77, label %78, label %80

78:                                               ; preds = %74
  %79 = call zeroext i1 (ptr, ...) @SDL_SetError_REAL(ptr noundef @.str.72)
  store i1 %79, ptr %4, align 1
  store i32 1, ptr %15, align 4
  br label %254

80:                                               ; preds = %74
  %81 = load i64, ptr %12, align 8
  %82 = icmp ugt i64 %81, 4294967295
  br i1 %82, label %88, label %83

83:                                               ; preds = %80
  %84 = load ptr, ptr %5, align 8
  %85 = getelementptr inbounds nuw %struct.WaveFile, ptr %84, i32 0, i32 3
  %86 = load i64, ptr %85, align 8
  %87 = icmp ugt i64 %86, -1
  br i1 %87, label %88, label %90

88:                                               ; preds = %83, %80
  %89 = call zeroext i1 (ptr, ...) @SDL_SetError_REAL(ptr noundef @.str.72)
  store i1 %89, ptr %4, align 1
  store i32 1, ptr %15, align 4
  br label %254

90:                                               ; preds = %83
  br label %91

91:                                               ; preds = %90
  %92 = load ptr, ptr %9, align 8
  %93 = getelementptr inbounds nuw %struct.WaveChunk, ptr %92, i32 0, i32 3
  %94 = load ptr, ptr %93, align 8
  %95 = load i64, ptr %12, align 8
  %96 = icmp ne i64 %95, 0
  br i1 %96, label %97, label %99

97:                                               ; preds = %91
  %98 = load i64, ptr %12, align 8
  br label %100

99:                                               ; preds = %91
  br label %100

100:                                              ; preds = %99, %97
  %101 = phi i64 [ %98, %97 ], [ 1, %99 ]
  %102 = call ptr @SDL_realloc_REAL(ptr noundef %94, i64 noundef %101) #8
  store ptr %102, ptr %13, align 8
  %103 = load ptr, ptr %13, align 8
  %104 = icmp ne ptr %103, null
  br i1 %104, label %106, label %105

105:                                              ; preds = %100
  store i1 false, ptr %4, align 1
  store i32 1, ptr %15, align 4
  br label %254

106:                                              ; preds = %100
  %107 = load ptr, ptr %9, align 8
  %108 = getelementptr inbounds nuw %struct.WaveChunk, ptr %107, i32 0, i32 3
  store ptr null, ptr %108, align 8
  %109 = load ptr, ptr %9, align 8
  %110 = getelementptr inbounds nuw %struct.WaveChunk, ptr %109, i32 0, i32 4
  store i64 0, ptr %110, align 8
  %111 = load ptr, ptr %13, align 8
  store ptr %111, ptr %14, align 8
  %112 = load i64, ptr %11, align 8
  store i64 %112, ptr %10, align 8
  %113 = load ptr, ptr %5, align 8
  %114 = getelementptr inbounds nuw %struct.WaveFile, ptr %113, i32 0, i32 1
  %115 = getelementptr inbounds nuw %struct.WaveFormat, ptr %114, i32 0, i32 1
  %116 = load i16, ptr %115, align 2
  %117 = zext i16 %116 to i32
  switch i32 %117, label %245 [
    i32 6, label %118
    i32 7, label %185
  ]

118:                                              ; preds = %106
  br label %119

119:                                              ; preds = %178, %118
  %120 = load i64, ptr %10, align 8
  %121 = add i64 %120, -1
  store i64 %121, ptr %10, align 8
  %122 = icmp ne i64 %120, 0
  br i1 %122, label %123, label %184

123:                                              ; preds = %119
  call void @llvm.lifetime.start.p0(i64 1, ptr %16) #7
  %124 = load ptr, ptr %13, align 8
  %125 = load i64, ptr %10, align 8
  %126 = getelementptr inbounds nuw i8, ptr %124, i64 %125
  %127 = load i8, ptr %126, align 1
  store i8 %127, ptr %16, align 1
  call void @llvm.lifetime.start.p0(i64 1, ptr %17) #7
  %128 = load i8, ptr %16, align 1
  %129 = zext i8 %128 to i32
  %130 = and i32 %129, 127
  %131 = xor i32 %130, 85
  %132 = trunc i32 %131 to i8
  store i8 %132, ptr %17, align 1
  call void @llvm.lifetime.start.p0(i64 2, ptr %18) #7
  %133 = load i8, ptr %17, align 1
  %134 = zext i8 %133 to i32
  %135 = and i32 %134, 15
  %136 = trunc i32 %135 to i16
  store i16 %136, ptr %18, align 2
  %137 = load i8, ptr %17, align 1
  %138 = zext i8 %137 to i32
  %139 = ashr i32 %138, 4
  %140 = trunc i32 %139 to i8
  store i8 %140, ptr %17, align 1
  %141 = load i8, ptr %17, align 1
  %142 = zext i8 %141 to i32
  %143 = icmp sgt i32 %142, 0
  br i1 %143, label %144, label %149

144:                                              ; preds = %123
  %145 = load i16, ptr %18, align 2
  %146 = sext i16 %145 to i32
  %147 = or i32 %146, 16
  %148 = trunc i32 %147 to i16
  store i16 %148, ptr %18, align 2
  br label %149

149:                                              ; preds = %144, %123
  %150 = load i16, ptr %18, align 2
  %151 = sext i16 %150 to i32
  %152 = shl i32 %151, 4
  %153 = or i32 %152, 8
  %154 = trunc i32 %153 to i16
  store i16 %154, ptr %18, align 2
  %155 = load i8, ptr %17, align 1
  %156 = zext i8 %155 to i32
  %157 = icmp sgt i32 %156, 1
  br i1 %157, label %158, label %166

158:                                              ; preds = %149
  %159 = load i8, ptr %17, align 1
  %160 = zext i8 %159 to i32
  %161 = sub nsw i32 %160, 1
  %162 = load i16, ptr %18, align 2
  %163 = sext i16 %162 to i32
  %164 = shl i32 %163, %161
  %165 = trunc i32 %164 to i16
  store i16 %165, ptr %18, align 2
  br label %166

166:                                              ; preds = %158, %149
  %167 = load i8, ptr %16, align 1
  %168 = zext i8 %167 to i32
  %169 = and i32 %168, 128
  %170 = icmp ne i32 %169, 0
  br i1 %170, label %171, label %174

171:                                              ; preds = %166
  %172 = load i16, ptr %18, align 2
  %173 = sext i16 %172 to i32
  br label %178

174:                                              ; preds = %166
  %175 = load i16, ptr %18, align 2
  %176 = sext i16 %175 to i32
  %177 = sub nsw i32 0, %176
  br label %178

178:                                              ; preds = %174, %171
  %179 = phi i32 [ %173, %171 ], [ %177, %174 ]
  %180 = trunc i32 %179 to i16
  %181 = load ptr, ptr %14, align 8
  %182 = load i64, ptr %10, align 8
  %183 = getelementptr inbounds nuw i16, ptr %181, i64 %182
  store i16 %180, ptr %183, align 2
  call void @llvm.lifetime.end.p0(i64 2, ptr %18) #7
  call void @llvm.lifetime.end.p0(i64 1, ptr %17) #7
  call void @llvm.lifetime.end.p0(i64 1, ptr %16) #7
  br label %119, !llvm.loop !7

184:                                              ; preds = %119
  br label %248

185:                                              ; preds = %106
  br label %186

186:                                              ; preds = %238, %185
  %187 = load i64, ptr %10, align 8
  %188 = add i64 %187, -1
  store i64 %188, ptr %10, align 8
  %189 = icmp ne i64 %187, 0
  br i1 %189, label %190, label %244

190:                                              ; preds = %186
  call void @llvm.lifetime.start.p0(i64 1, ptr %19) #7
  %191 = load ptr, ptr %13, align 8
  %192 = load i64, ptr %10, align 8
  %193 = getelementptr inbounds nuw i8, ptr %191, i64 %192
  %194 = load i8, ptr %193, align 1
  %195 = zext i8 %194 to i32
  %196 = xor i32 %195, -1
  %197 = trunc i32 %196 to i8
  store i8 %197, ptr %19, align 1
  call void @llvm.lifetime.start.p0(i64 2, ptr %20) #7
  %198 = load i8, ptr %19, align 1
  %199 = zext i8 %198 to i32
  %200 = and i32 %199, 15
  %201 = trunc i32 %200 to i16
  store i16 %201, ptr %20, align 2
  call void @llvm.lifetime.start.p0(i64 1, ptr %21) #7
  %202 = load i8, ptr %19, align 1
  %203 = zext i8 %202 to i32
  %204 = ashr i32 %203, 4
  %205 = and i32 %204, 7
  %206 = trunc i32 %205 to i8
  store i8 %206, ptr %21, align 1
  call void @llvm.lifetime.start.p0(i64 2, ptr %22) #7
  %207 = load i8, ptr %21, align 1
  %208 = zext i8 %207 to i32
  %209 = add nsw i32 %208, 1
  %210 = shl i32 4, %209
  %211 = trunc i32 %210 to i16
  store i16 %211, ptr %22, align 2
  %212 = load i8, ptr %21, align 1
  %213 = zext i8 %212 to i32
  %214 = shl i32 128, %213
  %215 = load i16, ptr %22, align 2
  %216 = sext i16 %215 to i32
  %217 = load i16, ptr %20, align 2
  %218 = sext i16 %217 to i32
  %219 = mul nsw i32 %216, %218
  %220 = add nsw i32 %214, %219
  %221 = load i16, ptr %22, align 2
  %222 = sext i16 %221 to i32
  %223 = sdiv i32 %222, 2
  %224 = add nsw i32 %220, %223
  %225 = sub nsw i32 %224, 132
  %226 = trunc i32 %225 to i16
  store i16 %226, ptr %20, align 2
  %227 = load i8, ptr %19, align 1
  %228 = zext i8 %227 to i32
  %229 = and i32 %228, 128
  %230 = icmp ne i32 %229, 0
  br i1 %230, label %231, label %235

231:                                              ; preds = %190
  %232 = load i16, ptr %20, align 2
  %233 = sext i16 %232 to i32
  %234 = sub nsw i32 0, %233
  br label %238

235:                                              ; preds = %190
  %236 = load i16, ptr %20, align 2
  %237 = sext i16 %236 to i32
  br label %238

238:                                              ; preds = %235, %231
  %239 = phi i32 [ %234, %231 ], [ %237, %235 ]
  %240 = trunc i32 %239 to i16
  %241 = load ptr, ptr %14, align 8
  %242 = load i64, ptr %10, align 8
  %243 = getelementptr inbounds nuw i16, ptr %241, i64 %242
  store i16 %240, ptr %243, align 2
  call void @llvm.lifetime.end.p0(i64 2, ptr %22) #7
  call void @llvm.lifetime.end.p0(i64 1, ptr %21) #7
  call void @llvm.lifetime.end.p0(i64 2, ptr %20) #7
  call void @llvm.lifetime.end.p0(i64 1, ptr %19) #7
  br label %186, !llvm.loop !8

244:                                              ; preds = %186
  br label %248

245:                                              ; preds = %106
  %246 = load ptr, ptr %13, align 8
  call void @SDL_free_REAL(ptr noundef %246)
  %247 = call zeroext i1 (ptr, ...) @SDL_SetError_REAL(ptr noundef @.str.73)
  store i1 %247, ptr %4, align 1
  store i32 1, ptr %15, align 4
  br label %254

248:                                              ; preds = %244, %184
  %249 = load ptr, ptr %13, align 8
  %250 = load ptr, ptr %6, align 8
  store ptr %249, ptr %250, align 8
  %251 = load i64, ptr %12, align 8
  %252 = trunc i64 %251 to i32
  %253 = load ptr, ptr %7, align 8
  store i32 %252, ptr %253, align 4
  store i1 true, ptr %4, align 1
  store i32 1, ptr %15, align 4
  br label %254

254:                                              ; preds = %248, %245, %105, %88, %78, %72, %59, %52
  call void @llvm.lifetime.end.p0(i64 8, ptr %14) #7
  call void @llvm.lifetime.end.p0(i64 8, ptr %13) #7
  call void @llvm.lifetime.end.p0(i64 8, ptr %12) #7
  call void @llvm.lifetime.end.p0(i64 8, ptr %11) #7
  call void @llvm.lifetime.end.p0(i64 8, ptr %10) #7
  call void @llvm.lifetime.end.p0(i64 8, ptr %9) #7
  call void @llvm.lifetime.end.p0(i64 8, ptr %8) #7
  %255 = load i1, ptr %4, align 1
  ret i1 %255
}