; Function Attrs: nounwind uwtable
define internal fastcc zeroext i1 @LAW_Decode(ptr noundef nonnull captures(none) %0, ptr noundef nonnull writeonly captures(none) %1, ptr noundef nonnull writeonly captures(none) %2) unnamed_addr #0 {
  %4 = getelementptr inbounds nuw i8, ptr %0, i64 4
  %5 = load i32, ptr %4, align 4
  %6 = zext i32 %5 to i64
  %7 = getelementptr inbounds nuw i8, ptr %0, i64 24
  %8 = load i64, ptr %7, align 8
  %.not = icmp eq i64 %8, %6
  br i1 %.not, label %._crit_edge, label %9

._crit_edge:                                      ; preds = %3
  %.phi.trans.insert = getelementptr inbounds nuw i8, ptr %0, i64 88
  %.pre = load i64, ptr %.phi.trans.insert, align 8
  br label %31

9:                                                ; preds = %3
  %10 = getelementptr inbounds nuw i8, ptr %0, i64 48
  %11 = load i16, ptr %10, align 4
  %12 = zext i16 %11 to i64
  %13 = udiv i64 %8, %12
  %14 = getelementptr inbounds nuw i8, ptr %0, i64 80
  %15 = load i32, ptr %14, align 8
  %16 = icmp eq i32 %15, 2
  br i1 %16, label %17, label %WaveAdjustToFactValue.exit

17:                                               ; preds = %9
  %18 = getelementptr inbounds nuw i8, ptr %0, i64 112
  %19 = load i32, ptr %18, align 8
  %20 = icmp eq i32 %19, 2
  %21 = getelementptr inbounds nuw i8, ptr %0, i64 84
  %22 = load i32, ptr %21, align 4
  %23 = zext i32 %22 to i64
  %24 = icmp slt i64 %13, %23
  %or.cond.i = select i1 %20, i1 %24, i1 false
  br i1 %or.cond.i, label %WaveAdjustToFactValue.exit.thread, label %._crit_edge.i

WaveAdjustToFactValue.exit.thread:                ; preds = %17
  %25 = tail call zeroext i1 (ptr, ...) @SDL_SetError_REAL(ptr noundef nonnull @.str.55) #8
  %26 = getelementptr inbounds nuw i8, ptr %0, i64 88
  store i64 -1, ptr %26, align 8
  br label %98

._crit_edge.i:                                    ; preds = %17
  %27 = icmp sgt i64 %13, %23
  br i1 %27, label %WaveAdjustToFactValue.exit.thread88, label %WaveAdjustToFactValue.exit

WaveAdjustToFactValue.exit.thread88:              ; preds = %._crit_edge.i
  %28 = getelementptr inbounds nuw i8, ptr %0, i64 88
  store i64 %23, ptr %28, align 8
  br label %31

WaveAdjustToFactValue.exit:                       ; preds = %9, %._crit_edge.i
  %29 = getelementptr inbounds nuw i8, ptr %0, i64 88
  store i64 %13, ptr %29, align 8
  %30 = icmp slt i64 %13, 0
  br i1 %30, label %98, label %31

31:                                               ; preds = %._crit_edge, %WaveAdjustToFactValue.exit.thread88, %WaveAdjustToFactValue.exit
  %32 = phi i64 [ %.pre, %._crit_edge ], [ %23, %WaveAdjustToFactValue.exit.thread88 ], [ %13, %WaveAdjustToFactValue.exit ]
  %33 = icmp eq i64 %32, 0
  br i1 %33, label %34, label %35

34:                                               ; preds = %31
  store ptr null, ptr %1, align 8
  store i32 0, ptr %2, align 4
  br label %98

35:                                               ; preds = %31
  %36 = getelementptr inbounds nuw i8, ptr %0, i64 36
  %37 = load i16, ptr %36, align 4
  %38 = zext i16 %37 to i64
  %39 = udiv i64 -1, %32
  %.not6.i = icmp ugt i64 %39, %38
  br i1 %.not6.i, label %41, label %SafeMult.exit

SafeMult.exit:                                    ; preds = %35
  %40 = tail call zeroext i1 (ptr, ...) @SDL_SetError_REAL(ptr noundef nonnull @.str.72) #8
  br label %98

41:                                               ; preds = %35
  %42 = mul i64 %32, %38
  %.not.i76 = icmp eq i64 %42, 0
  br i1 %.not.i76, label %.thread, label %43

43:                                               ; preds = %41
  %.not6.i77 = icmp ult i64 %42, 6148914691236517206
  br i1 %.not6.i77, label %45, label %SafeMult.exit79

SafeMult.exit79:                                  ; preds = %43
  %44 = tail call zeroext i1 (ptr, ...) @SDL_SetError_REAL(ptr noundef nonnull @.str.72) #8
  br label %98

45:                                               ; preds = %43
  %46 = shl nuw nsw i64 %42, 1
  %47 = icmp samesign ugt i64 %42, 2147483647
  br i1 %47, label %48, label %.thread

48:                                               ; preds = %45
  %49 = tail call zeroext i1 (ptr, ...) @SDL_SetError_REAL(ptr noundef nonnull @.str.72) #8
  br label %98

.thread:                                          ; preds = %41, %45
  %50 = phi i64 [ %46, %45 ], [ 0, %41 ]
  %51 = getelementptr inbounds nuw i8, ptr %0, i64 16
  %52 = load ptr, ptr %51, align 8
  %53 = tail call i64 @llvm.umax.i64(i64 %50, i64 1)
  %54 = tail call ptr @SDL_realloc_REAL(ptr noundef %52, i64 noundef %53) #9
  %.not68 = icmp eq ptr %54, null
  br i1 %.not68, label %98, label %55

55:                                               ; preds = %.thread
  %56 = getelementptr inbounds nuw i8, ptr %0, i64 34
  tail call void @llvm.memset.p0.i64(ptr noundef nonnull align 8 dereferenceable(16) %51, i8 0, i64 16, i1 false)
  %57 = load i16, ptr %56, align 2
  switch i16 %57, label %95 [
    i16 6, label %.preheader
    i16 7, label %.preheader98
  ]

.preheader98:                                     ; preds = %55
  br i1 %.not.i76, label %.loopexit, label %.lr.ph

.preheader:                                       ; preds = %55
  br i1 %.not.i76, label %.loopexit, label %.lr.ph104

.lr.ph104:                                        ; preds = %.preheader, %.lr.ph104
  %.057103 = phi i64 [ %58, %.lr.ph104 ], [ %42, %.preheader ]
  %58 = add i64 %.057103, -1
  %59 = getelementptr inbounds nuw i8, ptr %54, i64 %58
  %60 = load i8, ptr %59, align 1
  %61 = and i8 %60, 127
  %62 = xor i8 %61, 85
  %63 = and i8 %62, 15
  %64 = lshr i8 %62, 4
  %65 = zext nneg i8 %64 to i32
  %.not72 = icmp samesign ult i8 %62, 16
  %66 = or disjoint i8 %63, 16
  %spec.select = select i1 %.not72, i8 %63, i8 %66
  %67 = zext nneg i8 %spec.select to i16
  %68 = shl nuw nsw i16 %67, 4
  %69 = or disjoint i16 %68, 8
  %70 = icmp samesign ugt i8 %62, 31
  %71 = add nsw i32 %65, -1
  %72 = zext nneg i16 %69 to i32
  %73 = shl nuw nsw i32 %72, %71
  %74 = trunc nuw nsw i32 %73 to i16
  %.159 = select i1 %70, i16 %74, i16 %69
  %75 = sub i16 0, %.159
  %.not7374 = icmp slt i8 %60, 0
  %76 = select i1 %.not7374, i16 %.159, i16 %75
  %77 = getelementptr inbounds nuw i16, ptr %54, i64 %58
  store i16 %76, ptr %77, align 2
  %.not71 = icmp eq i64 %58, 0
  br i1 %.not71, label %.loopexit, label %.lr.ph104, !llvm.loop !6

.lr.ph:                                           ; preds = %.preheader98, %.lr.ph
  %.1101 = phi i64 [ %78, %.lr.ph ], [ %42, %.preheader98 ]
  %78 = add i64 %.1101, -1
  %79 = getelementptr inbounds nuw i8, ptr %54, i64 %78
  %80 = load i8, ptr %79, align 1
  %81 = xor i8 %80, -1
  %82 = and i8 %81, 15
  %83 = lshr i8 %81, 4
  %84 = and i8 %83, 7
  %85 = zext nneg i8 %84 to i16
  %86 = zext nneg i8 %82 to i16
  %87 = add nuw nsw i16 %85, 3
  %88 = shl nuw nsw i16 %86, %87
  %89 = shl nuw nsw i16 132, %85
  %90 = add nuw nsw i16 %88, %89
  %91 = add nsw i16 %90, -132
  %.not70 = icmp slt i8 %80, 0
  %92 = sub nsw i16 132, %90
  %93 = select i1 %.not70, i16 %91, i16 %92
  %94 = getelementptr inbounds nuw i16, ptr %54, i64 %78
  store i16 %93, ptr %94, align 2
  %.not69 = icmp eq i64 %78, 0
  br i1 %.not69, label %.loopexit, label %.lr.ph, !llvm.loop !7

95:                                               ; preds = %55
  tail call void @SDL_free_REAL(ptr noundef nonnull %54) #8
  %96 = tail call zeroext i1 (ptr, ...) @SDL_SetError_REAL(ptr noundef nonnull @.str.73) #8
  br label %98

.loopexit:                                        ; preds = %.lr.ph, %.lr.ph104, %.preheader98, %.preheader
  store ptr %54, ptr %1, align 8
  %97 = trunc i64 %50 to i32
  store i32 %97, ptr %2, align 4
  br label %98

98:                                               ; preds = %WaveAdjustToFactValue.exit.thread, %.thread, %WaveAdjustToFactValue.exit, %.loopexit, %95, %48, %SafeMult.exit79, %SafeMult.exit, %34
  %.0 = phi i1 [ true, %34 ], [ %40, %SafeMult.exit ], [ %44, %SafeMult.exit79 ], [ %49, %48 ], [ %96, %95 ], [ true, %.loopexit ], [ false, %WaveAdjustToFactValue.exit ], [ false, %.thread ], [ false, %WaveAdjustToFactValue.exit.thread ]
  ret i1 %.0
}